; Function Attrs: nofree nosync nounwind memory(readwrite, inaccessiblemem: none) uwtable
define range(i32 -2147483647, -2147483648) i32 @Hop_ManConvertAigToTruth_rec1(ptr noundef captures(none) %0) local_unnamed_addr #0 {
  %2 = getelementptr i8, ptr %0, i64 32
  %.val = load i32, ptr %2, align 8
  %3 = and i32 %.val, 22
  %or.cond = icmp eq i32 %3, 4
  br i1 %or.cond, label %4, label %common.ret12

common.ret12:                                     ; preds = %1, %4
  %common.ret12.op = phi i32 [ %18, %4 ], [ 0, %1 ]
  ret i32 %common.ret12.op

4:                                                ; preds = %1
  %5 = getelementptr i8, ptr %0, i64 16
  %.val10 = load ptr, ptr %5, align 8, !tbaa !3
  %6 = ptrtoint ptr %.val10 to i64
  %7 = and i64 %6, -2
  %8 = inttoptr i64 %7 to ptr
  %9 = tail call i32 @Hop_ManConvertAigToTruth_rec1(ptr noundef %8)
  %10 = getelementptr i8, ptr %0, i64 24
  %.val11 = load ptr, ptr %10, align 8, !tbaa !10
  %11 = ptrtoint ptr %.val11 to i64
  %12 = and i64 %11, -2
  %13 = inttoptr i64 %12 to ptr
  %14 = tail call i32 @Hop_ManConvertAigToTruth_rec1(ptr noundef %13)
  %15 = load i32, ptr %2, align 8
  %16 = or i32 %15, 16
  store i32 %16, ptr %2, align 8
  %17 = add i32 %9, 1
  %18 = add i32 %17, %14
  br label %common.ret12
}